; Function Attrs: mustprogress uwtable
define noundef ptr @_ZN6duckdb14MetadataWriter3PtrEv(ptr noundef nonnull align 8 dereferenceable(80) %0) local_unnamed_addr #2 align 2 {
  %2 = getelementptr inbounds nuw i8, ptr %0, i64 40
  tail call void @_ZNK6duckdb12optional_ptrINS_10FileBufferELb1EE10CheckValidEv(ptr noundef nonnull align 8 dereferenceable(8) %2)
  %3 = load ptr, ptr %2, align 8, !tbaa !104
  %4 = getelementptr inbounds nuw i8, ptr %3, i64 16
  %5 = load ptr, ptr %4, align 8, !tbaa !106
  %6 = getelementptr inbounds nuw i8, ptr %0, i64 48
  %7 = load i64, ptr %6, align 8
  %8 = lshr i64 %7, 56
  %9 = getelementptr inbounds nuw i8, ptr %0, i64 8
  %10 = load ptr, ptr %9, align 8, !tbaa !218
  %11 = load ptr, ptr %10, align 8, !tbaa !43
  %12 = getelementptr inbounds nuw i8, ptr %11, i64 120
  %13 = tail call noundef i64 @_ZNK6duckdb12optional_idx8GetIndexEv(ptr noundef nonnull align 8 dereferenceable(8) %12)
  %14 = add i64 %13, -8
  %15 = lshr i64 %14, 6
  %16 = and i64 %15, 288230376151711736
  %17 = mul i64 %16, %8
  %18 = getelementptr inbounds nuw i8, ptr %5, i64 %17
  %19 = getelementptr inbounds nuw i8, ptr %0, i64 72
  %20 = load i64, ptr %19, align 8, !tbaa !214
  %21 = getelementptr inbounds nuw i8, ptr %18, i64 %20
  ret ptr %21
}